; ModuleID = '19/1287.c'
source_filename = "19/1287.c"
target datalayout = "e-m:e-p270:32:32-p271:32:32-p272:64:64-i64:64-f80:128-n8:16:32:64-S128"
target triple = "x86_64-pc-linux-gnu"

@.str = private unnamed_addr constant [3 x i8] c"%s\00", align 1
@.str.1 = private unnamed_addr constant [4 x i8] c" %s\00", align 1

; Function Attrs: noinline nounwind uwtable
define dso_local void @main() #0 {
  %1 = alloca [100 x i8*], align 16
  %2 = alloca i32, align 4
  %3 = alloca i32, align 4
  store i32 0, i32* %2, align 4
  %4 = call noalias i8* @malloc(i64 100) #4
  %5 = getelementptr inbounds [100 x i8*], [100 x i8*]* %1, i64 0, i64 0
  %6 = load i32, i32* %2, align 4
  %7 = sext i32 %6 to i64
  %8 = getelementptr inbounds i8*, i8** %5, i64 %7
  store i8* %4, i8** %8, align 8
  br label %9

9:                                                ; preds = %17, %0
  %10 = getelementptr inbounds [100 x i8*], [100 x i8*]* %1, i64 0, i64 0
  %11 = load i32, i32* %2, align 4
  %12 = sext i32 %11 to i64
  %13 = getelementptr inbounds i8*, i8** %10, i64 %12
  %14 = load i8*, i8** %13, align 8
  %15 = call i32 (i8*, ...) @__isoc99_scanf(i8* getelementptr inbounds ([3 x i8], [3 x i8]* @.str, i64 0, i64 0), i8* %14)
  %16 = icmp ne i32 %15, -1
  br i1 %16, label %17, label %25

17:                                               ; preds = %9
  %18 = load i32, i32* %2, align 4
  %19 = add nsw i32 %18, 1
  store i32 %19, i32* %2, align 4
  %20 = call noalias i8* @malloc(i64 100) #4
  %21 = getelementptr inbounds [100 x i8*], [100 x i8*]* %1, i64 0, i64 0
  %22 = load i32, i32* %2, align 4
  %23 = sext i32 %22 to i64
  %24 = getelementptr inbounds i8*, i8** %21, i64 %23
  store i8* %20, i8** %24, align 8
  br label %9

25:                                               ; preds = %9
  store i32 0, i32* %3, align 4
  br label %26

26:                                               ; preds = %59, %25
  %27 = load i32, i32* %3, align 4
  %28 = load i32, i32* %2, align 4
  %29 = sub nsw i32 %28, 2
  %30 = icmp slt i32 %27, %29
  br i1 %30, label %31, label %62

31:                                               ; preds = %26
  %32 = getelementptr inbounds [100 x i8*], [100 x i8*]* %1, i64 0, i64 0
  %33 = load i32, i32* %3, align 4
  %34 = sext i32 %33 to i64
  %35 = getelementptr inbounds i8*, i8** %32, i64 %34
  %36 = load i8*, i8** %35, align 8
  %37 = getelementptr inbounds [100 x i8*], [100 x i8*]* %1, i64 0, i64 0
  %38 = load i32, i32* %2, align 4
  %39 = sext i32 %38 to i64
  %40 = getelementptr inbounds i8*, i8** %37, i64 %39
  %41 = getelementptr inbounds i8*, i8** %40, i64 -2
  %42 = load i8*, i8** %41, align 8
  %43 = call i32 @strcmp(i8* %36, i8* %42) #5
  %44 = icmp eq i32 %43, 0
  br i1 %44, label %45, label %58

45:                                               ; preds = %31
  %46 = getelementptr inbounds [100 x i8*], [100 x i8*]* %1, i64 0, i64 0
  %47 = load i32, i32* %3, align 4
  %48 = sext i32 %47 to i64
  %49 = getelementptr inbounds i8*, i8** %46, i64 %48
  %50 = load i8*, i8** %49, align 8
  %51 = getelementptr inbounds [100 x i8*], [100 x i8*]* %1, i64 0, i64 0
  %52 = load i32, i32* %2, align 4
  %53 = sext i32 %52 to i64
  %54 = getelementptr inbounds i8*, i8** %51, i64 %53
  %55 = getelementptr inbounds i8*, i8** %54, i64 -1
  %56 = load i8*, i8** %55, align 8
  %57 = call i8* @strcpy(i8* %50, i8* %56) #4
  br label %58

58:                                               ; preds = %45, %31
  br label %59

59:                                               ; preds = %58
  %60 = load i32, i32* %3, align 4
  %61 = add nsw i32 %60, 1
  store i32 %61, i32* %3, align 4
  br label %26

62:                                               ; preds = %26
  %63 = getelementptr inbounds [100 x i8*], [100 x i8*]* %1, i64 0, i64 0
  %64 = load i8*, i8** %63, align 16
  %65 = call i32 (i8*, ...) @printf(i8* getelementptr inbounds ([3 x i8], [3 x i8]* @.str, i64 0, i64 0), i8* %64)
  store i32 1, i32* %3, align 4
  br label %66

66:                                               ; preds = %78, %62
  %67 = load i32, i32* %3, align 4
  %68 = load i32, i32* %2, align 4
  %69 = sub nsw i32 %68, 2
  %70 = icmp slt i32 %67, %69
  br i1 %70, label %71, label %81

71:                                               ; preds = %66
  %72 = getelementptr inbounds [100 x i8*], [100 x i8*]* %1, i64 0, i64 0
  %73 = load i32, i32* %3, align 4
  %74 = sext i32 %73 to i64
  %75 = getelementptr inbounds i8*, i8** %72, i64 %74
  %76 = load i8*, i8** %75, align 8
  %77 = call i32 (i8*, ...) @printf(i8* getelementptr inbounds ([4 x i8], [4 x i8]* @.str.1, i64 0, i64 0), i8* %76)
  br label %78

78:                                               ; preds = %71
  %79 = load i32, i32* %3, align 4
  %80 = add nsw i32 %79, 1
  store i32 %80, i32* %3, align 4
  br label %66

81:                                               ; preds = %66
  ret void
}

; Function Attrs: nounwind
declare dso_local noalias i8* @malloc(i64) #1

declare dso_local i32 @__isoc99_scanf(i8*, ...) #2

; Function Attrs: nounwind readonly
declare dso_local i32 @strcmp(i8*, i8*) #3

; Function Attrs: nounwind
declare dso_local i8* @strcpy(i8*, i8*) #1

declare dso_local i32 @printf(i8*, ...) #2


!llvm.module.flags = !{!0}
!llvm.ident = !{!1}

!0 = !{i32 1, !"wchar_size", i32 4}
!1 = !{!"clang version 10.0.0-4ubuntu1 "}
